; ModuleID = '21/1989.c'
source_filename = "21/1989.c"
target datalayout = "e-m:e-p270:32:32-p271:32:32-p272:64:64-i64:64-f80:128-n8:16:32:64-S128"
target triple = "x86_64-pc-linux-gnu"

@.str = private unnamed_addr constant [3 x i8] c"%d\00", align 1
@.str.1 = private unnamed_addr constant [4 x i8] c",%d\00", align 1

; Function Attrs: noinline nounwind uwtable
define dso_local i32 @main() #0 {
  %1 = alloca i32, align 4
  %2 = alloca i32, align 4
  %3 = alloca i32, align 4
  %4 = alloca i32, align 4
  %5 = alloca i32, align 4
  %6 = alloca [300 x i32], align 16
  %7 = alloca i32, align 4
  %8 = alloca double, align 8
  %9 = alloca [300 x double], align 16
  %10 = alloca double, align 8
  %11 = alloca i32, align 4
  store i32 0, i32* %1, align 4
  store i32 0, i32* %7, align 4
  %12 = call i32 (i8*, ...) @__isoc99_scanf(i8* getelementptr inbounds ([3 x i8], [3 x i8]* @.str, i64 0, i64 0), i32* %2)
  store i32 0, i32* %3, align 4
  br label %13

13:                                               ; preds = %28, %0
  %14 = load i32, i32* %3, align 4
  %15 = load i32, i32* %2, align 4
  %16 = icmp slt i32 %14, %15
  br i1 %16, label %17, label %31

17:                                               ; preds = %13
  %18 = load i32, i32* %3, align 4
  %19 = sext i32 %18 to i64
  %20 = getelementptr inbounds [300 x i32], [300 x i32]* %6, i64 0, i64 %19
  %21 = call i32 (i8*, ...) @__isoc99_scanf(i8* getelementptr inbounds ([3 x i8], [3 x i8]* @.str, i64 0, i64 0), i32* %20)
  %22 = load i32, i32* %7, align 4
  %23 = load i32, i32* %3, align 4
  %24 = sext i32 %23 to i64
  %25 = getelementptr inbounds [300 x i32], [300 x i32]* %6, i64 0, i64 %24
  %26 = load i32, i32* %25, align 4
  %27 = add nsw i32 %22, %26
  store i32 %27, i32* %7, align 4
  br label %28

28:                                               ; preds = %17
  %29 = load i32, i32* %3, align 4
  %30 = add nsw i32 %29, 1
  store i32 %30, i32* %3, align 4
  br label %13

31:                                               ; preds = %13
  %32 = load i32, i32* %7, align 4
  %33 = sitofp i32 %32 to double
  %34 = fmul double 1.000000e+00, %33
  %35 = load i32, i32* %2, align 4
  %36 = sitofp i32 %35 to double
  %37 = fdiv double %34, %36
  store double %37, double* %8, align 8
  store i32 0, i32* %3, align 4
  br label %38

38:                                               ; preds = %81, %31
  %39 = load i32, i32* %3, align 4
  %40 = load i32, i32* %2, align 4
  %41 = sub nsw i32 %40, 1
  %42 = icmp slt i32 %39, %41
  br i1 %42, label %43, label %84

43:                                               ; preds = %38
  %44 = load i32, i32* %2, align 4
  %45 = sub nsw i32 %44, 1
  store i32 %45, i32* %4, align 4
  br label %46

46:                                               ; preds = %77, %43
  %47 = load i32, i32* %4, align 4
  %48 = load i32, i32* %3, align 4
  %49 = icmp sgt i32 %47, %48
  br i1 %49, label %50, label %80

50:                                               ; preds = %46
  %51 = load i32, i32* %3, align 4
  %52 = sext i32 %51 to i64
  %53 = getelementptr inbounds [300 x i32], [300 x i32]* %6, i64 0, i64 %52
  %54 = load i32, i32* %53, align 4
  %55 = load i32, i32* %4, align 4
  %56 = sext i32 %55 to i64
  %57 = getelementptr inbounds [300 x i32], [300 x i32]* %6, i64 0, i64 %56
  %58 = load i32, i32* %57, align 4
  %59 = icmp sgt i32 %54, %58
  br i1 %59, label %60, label %76

60:                                               ; preds = %50
  %61 = load i32, i32* %3, align 4
  %62 = sext i32 %61 to i64
  %63 = getelementptr inbounds [300 x i32], [300 x i32]* %6, i64 0, i64 %62
  %64 = load i32, i32* %63, align 4
  store i32 %64, i32* %5, align 4
  %65 = load i32, i32* %4, align 4
  %66 = sext i32 %65 to i64
  %67 = getelementptr inbounds [300 x i32], [300 x i32]* %6, i64 0, i64 %66
  %68 = load i32, i32* %67, align 4
  %69 = load i32, i32* %3, align 4
  %70 = sext i32 %69 to i64
  %71 = getelementptr inbounds [300 x i32], [300 x i32]* %6, i64 0, i64 %70
  store i32 %68, i32* %71, align 4
  %72 = load i32, i32* %5, align 4
  %73 = load i32, i32* %4, align 4
  %74 = sext i32 %73 to i64
  %75 = getelementptr inbounds [300 x i32], [300 x i32]* %6, i64 0, i64 %74
  store i32 %72, i32* %75, align 4
  br label %76

76:                                               ; preds = %60, %50
  br label %77

77:                                               ; preds = %76
  %78 = load i32, i32* %4, align 4
  %79 = add nsw i32 %78, -1
  store i32 %79, i32* %4, align 4
  br label %46

80:                                               ; preds = %46
  br label %81

81:                                               ; preds = %80
  %82 = load i32, i32* %3, align 4
  %83 = add nsw i32 %82, 1
  store i32 %83, i32* %3, align 4
  br label %38

84:                                               ; preds = %38
  store i32 0, i32* %4, align 4
  br label %85

85:                                               ; preds = %145, %84
  %86 = load i32, i32* %4, align 4
  %87 = load i32, i32* %2, align 4
  %88 = icmp slt i32 %86, %87
  br i1 %88, label %89, label %148

89:                                               ; preds = %85
  %90 = load i32, i32* %4, align 4
  %91 = sext i32 %90 to i64
  %92 = getelementptr inbounds [300 x i32], [300 x i32]* %6, i64 0, i64 %91
  %93 = load i32, i32* %92, align 4
  %94 = sitofp i32 %93 to double
  %95 = load double, double* %8, align 8
  %96 = fcmp oge double %94, %95
  br i1 %96, label %97, label %108

97:                                               ; preds = %89
  %98 = load i32, i32* %4, align 4
  %99 = sext i32 %98 to i64
  %100 = getelementptr inbounds [300 x i32], [300 x i32]* %6, i64 0, i64 %99
  %101 = load i32, i32* %100, align 4
  %102 = sitofp i32 %101 to double
  %103 = load double, double* %8, align 8
  %104 = fsub double %102, %103
  %105 = load i32, i32* %4, align 4
  %106 = sext i32 %105 to i64
  %107 = getelementptr inbounds [300 x double], [300 x double]* %9, i64 0, i64 %106
  store double %104, double* %107, align 8
  br label %119

108:                                              ; preds = %89
  %109 = load double, double* %8, align 8
  %110 = load i32, i32* %4, align 4
  %111 = sext i32 %110 to i64
  %112 = getelementptr inbounds [300 x i32], [300 x i32]* %6, i64 0, i64 %111
  %113 = load i32, i32* %112, align 4
  %114 = sitofp i32 %113 to double
  %115 = fsub double %109, %114
  %116 = load i32, i32* %4, align 4
  %117 = sext i32 %116 to i64
  %118 = getelementptr inbounds [300 x double], [300 x double]* %9, i64 0, i64 %117
  store double %115, double* %118, align 8
  br label %119

119:                                              ; preds = %108, %97
  %120 = getelementptr inbounds [300 x double], [300 x double]* %9, i64 0, i64 0
  %121 = load double, double* %120, align 16
  store double %121, double* %10, align 8
  %122 = load i32, i32* %4, align 4
  %123 = sext i32 %122 to i64
  %124 = getelementptr inbounds [300 x double], [300 x double]* %9, i64 0, i64 %123
  %125 = load double, double* %124, align 8
  %126 = load double, double* %10, align 8
  %127 = fcmp oge double %125, %126
  br i1 %127, label %128, label %133

128:                                              ; preds = %119
  %129 = load i32, i32* %4, align 4
  %130 = sext i32 %129 to i64
  %131 = getelementptr inbounds [300 x double], [300 x double]* %9, i64 0, i64 %130
  %132 = load double, double* %131, align 8
  store double %132, double* %10, align 8
  br label %144

133:                                              ; preds = %119
  %134 = load i32, i32* %4, align 4
  %135 = sext i32 %134 to i64
  %136 = getelementptr inbounds [300 x double], [300 x double]* %9, i64 0, i64 %135
  %137 = load double, double* %136, align 8
  %138 = load double, double* %10, align 8
  %139 = fcmp olt double %137, %138
  br i1 %139, label %140, label %143

140:                                              ; preds = %133
  %141 = getelementptr inbounds [300 x double], [300 x double]* %9, i64 0, i64 0
  %142 = load double, double* %141, align 16
  store double %142, double* %10, align 8
  br label %143

143:                                              ; preds = %140, %133
  br label %144

144:                                              ; preds = %143, %128
  br label %145

145:                                              ; preds = %144
  %146 = load i32, i32* %4, align 4
  %147 = add nsw i32 %146, 1
  store i32 %147, i32* %4, align 4
  br label %85

148:                                              ; preds = %85
  store i32 0, i32* %11, align 4
  store i32 0, i32* %4, align 4
  br label %149

149:                                              ; preds = %179, %148
  %150 = load i32, i32* %4, align 4
  %151 = load i32, i32* %2, align 4
  %152 = icmp slt i32 %150, %151
  br i1 %152, label %153, label %182

153:                                              ; preds = %149
  %154 = load double, double* %10, align 8
  %155 = load i32, i32* %4, align 4
  %156 = sext i32 %155 to i64
  %157 = getelementptr inbounds [300 x double], [300 x double]* %9, i64 0, i64 %156
  %158 = load double, double* %157, align 8
  %159 = fcmp oeq double %154, %158
  br i1 %159, label %160, label %178

160:                                              ; preds = %153
  %161 = load i32, i32* %11, align 4
  %162 = icmp eq i32 %161, 0
  br i1 %162, label %163, label %169

163:                                              ; preds = %160
  %164 = load i32, i32* %4, align 4
  %165 = sext i32 %164 to i64
  %166 = getelementptr inbounds [300 x i32], [300 x i32]* %6, i64 0, i64 %165
  %167 = load i32, i32* %166, align 4
  %168 = call i32 (i8*, ...) @printf(i8* getelementptr inbounds ([3 x i8], [3 x i8]* @.str, i64 0, i64 0), i32 %167)
  br label %175

169:                                              ; preds = %160
  %170 = load i32, i32* %4, align 4
  %171 = sext i32 %170 to i64
  %172 = getelementptr inbounds [300 x i32], [300 x i32]* %6, i64 0, i64 %171
  %173 = load i32, i32* %172, align 4
  %174 = call i32 (i8*, ...) @printf(i8* getelementptr inbounds ([4 x i8], [4 x i8]* @.str.1, i64 0, i64 0), i32 %173)
  br label %175

175:                                              ; preds = %169, %163
  %176 = load i32, i32* %11, align 4
  %177 = add nsw i32 %176, 1
  store i32 %177, i32* %11, align 4
  br label %178

178:                                              ; preds = %175, %153
  br label %179

179:                                              ; preds = %178
  %180 = load i32, i32* %4, align 4
  %181 = add nsw i32 %180, 1
  store i32 %181, i32* %4, align 4
  br label %149

182:                                              ; preds = %149
  ret i32 0
}

declare dso_local i32 @__isoc99_scanf(i8*, ...) #1

declare dso_local i32 @printf(i8*, ...) #1


!llvm.module.flags = !{!0}
!llvm.ident = !{!1}

!0 = !{i32 1, !"wchar_size", i32 4}
!1 = !{!"clang version 10.0.0-4ubuntu1 "}
